TN:
SF:/home/imry/Desktop/Imry/os_au/OS-ex4/isEulerian.cpp
FN:101,142,_ZN5Graph4isSCEv
FN:145,154,_ZN5Graph10printGraphEv
FN:157,210,_ZN5Graph19generateRandomGraphEiij
FN:20,20,_ZN5GraphD2Ev
FN:213,221,_Z10printUsagePKc
FN:224,289,main
FN:23,23,_ZN5Graph7addEdgeEii
FN:44,51,_ZN5GraphC2Ei
FN:55,67,_ZN5Graph15isEulerianCycleEv
FN:70,80,_ZN5Graph7DFSUtilEiPb
FN:83,97,_ZN5Graph12getTransposeEv
FNDA:3,_ZN5Graph4isSCEv
FNDA:3,_ZN5Graph10printGraphEv
FNDA:3,_ZN5Graph19generateRandomGraphEiij
FNDA:6,_ZN5GraphD2Ev
FNDA:0,_Z10printUsagePKc
FNDA:3,main
FNDA:33,_ZN5Graph7addEdgeEii
FNDA:6,_ZN5GraphC2Ei
FNDA:3,_ZN5Graph15isEulerianCycleEv
FNDA:33,_ZN5Graph7DFSUtilEiPb
FNDA:3,_ZN5Graph12getTransposeEv
FNF:11
FNH:10
DA:20,42
DA:23,33
DA:44,6
DA:46,6
DA:47,42
DA:48,6
DA:49,42
DA:50,36
DA:51,6
DA:55,3
DA:58,3
DA:59,1
DA:62,3
DA:63,3
DA:64,2
DA:66,0
DA:70,33
DA:73,33
DA:76,33
DA:77,93
DA:78,60
DA:79,27
DA:80,33
DA:83,3
DA:85,3
DA:86,21
DA:89,18
DA:90,51
DA:92,33
DA:93,33
DA:96,3
DA:97,0
DA:101,3
DA:104,3
DA:105,21
DA:106,18
DA:110,4
DA:111,4
DA:112,3
DA:115,3
DA:116,0
DA:119,3
DA:122,21
DA:123,18
DA:124,0
DA:127,3
DA:130,21
DA:131,18
DA:134,3
DA:137,18
DA:138,16
DA:139,1
DA:141,2
DA:142,6
DA:145,3
DA:147,21
DA:149,18
DA:150,51
DA:151,33
DA:152,18
DA:154,3
DA:157,3
DA:160,3
DA:163,3
DA:166,3
DA:170,3
DA:171,3
DA:173,57
DA:176,54
DA:177,54
DA:180,54
DA:183,45
DA:184,76
DA:186,43
DA:188,12
DA:189,12
DA:194,45
DA:196,33
DA:197,33
DA:201,54
DA:204,3
DA:206,0
DA:209,3
DA:210,0
DA:213,0
DA:215,0
DA:216,0
DA:217,0
DA:218,0
DA:219,0
DA:220,0
DA:221,0
DA:224,3
DA:227,3
DA:228,3
DA:229,3
DA:233,12
DA:235,9
DA:237,3
DA:238,3
DA:239,3
DA:241,0
DA:242,0
DA:244,3
DA:246,3
DA:247,3
DA:248,3
DA:250,0
DA:251,0
DA:253,3
DA:255,3
DA:256,3
DA:257,3
DA:259,0
DA:260,0
DA:261,0
DA:263,0
DA:264,0
DA:265,0
DA:270,3
DA:271,3
DA:272,3
DA:273,3
DA:276,3
DA:279,3
DA:280,3
DA:283,3
DA:284,0
DA:286,3
DA:288,3
LF:130
LH:105
end_of_record
TN:
SF:/usr/include/c++/13/bits/alloc_traits.h
FNF:0
FNH:0
DA:482,66
DA:517,66
DA:538,66
DA:542,66
DA:562,66
LF:5
LH:5
end_of_record
TN:
SF:/usr/include/c++/13/bits/allocated_ptr.h
FN:53,55,_ZNSt15__allocated_ptrISaISt10_List_nodeIiEEEC2ERS2_PS1_
FN:71,75,_ZNSt15__allocated_ptrISaISt10_List_nodeIiEEED2Ev
FN:79,83,_ZNSt15__allocated_ptrISaISt10_List_nodeIiEEEaSEDn
FNDA:66,_ZNSt15__allocated_ptrISaISt10_List_nodeIiEEEC2ERS2_PS1_
FNDA:66,_ZNSt15__allocated_ptrISaISt10_List_nodeIiEEED2Ev
FNDA:66,_ZNSt15__allocated_ptrISaISt10_List_nodeIiEEEaSEDn
FNF:3
FNH:3
DA:53,66
DA:54,66
DA:55,66
DA:71,66
DA:73,66
DA:74,0
DA:75,66
DA:79,66
DA:81,66
DA:82,66
LF:10
LH:9
end_of_record
TN:
SF:/usr/include/c++/13/bits/allocator.h
FNF:0
FNH:0
DA:163,36
LF:1
LH:1
end_of_record
TN:
SF:/usr/include/c++/13/bits/list.tcc
FN:66,83,_ZNSt7__cxx1110_List_baseIiSaIiEE8_M_clearEv
FNDA:36,_ZNSt7__cxx1110_List_baseIiSaIiEE8_M_clearEv
FNF:1
FNH:1
DA:66,36
DA:70,36
DA:71,102
DA:73,66
DA:74,66
DA:75,66
DA:77,66
DA:81,66
DA:83,36
LF:9
LH:9
end_of_record
TN:
SF:/usr/include/c++/13/bits/move.h
FN:51,52,_ZSt11__addressofISaISt10_List_nodeIiEEEPT_RS3_
FN:70,71,_ZSt7forwardIRKiEOT_RNSt16remove_referenceIS2_E4typeE
FNDA:66,_ZSt11__addressofISaISt10_List_nodeIiEEEPT_RS3_
FNDA:264,_ZSt7forwardIRKiEOT_RNSt16remove_referenceIS2_E4typeE
FNF:2
FNH:2
DA:51,66
DA:52,66
DA:70,264
DA:71,264
LF:4
LH:4
end_of_record
TN:
SF:/usr/include/c++/13/bits/new_allocator.h
FN:104,104,_ZNSt15__new_allocatorISt10_List_nodeIiEED2Ev
FN:126,152,_ZNSt15__new_allocatorISt10_List_nodeIiEE8allocateEmPKv
FN:156,173,_ZNSt15__new_allocatorISt10_List_nodeIiEE10deallocateEPS1_m
FNDA:36,_ZNSt15__new_allocatorISt10_List_nodeIiEED2Ev
FNDA:66,_ZNSt15__new_allocatorISt10_List_nodeIiEE8allocateEmPKv
FNDA:66,_ZNSt15__new_allocatorISt10_List_nodeIiEE10deallocateEPS1_m
FNF:3
FNH:3
DA:88,36
DA:104,36
DA:126,66
DA:134,66
DA:138,0
DA:139,0
DA:140,0
DA:151,66
DA:156,66
DA:172,66
DA:191,66
DA:198,66
DA:233,66
LF:13
LH:10
end_of_record
TN:
SF:/usr/include/c++/13/bits/stl_list.h
FN:1022,1023,_ZNSt7__cxx114listIiSaIiEE5beginEv
FN:1042,1043,_ZNSt7__cxx114listIiSaIiEE3endEv
FN:110,111,_ZNSt8__detail17_List_node_headerC2Ev
FN:1149,1150,_ZNKSt7__cxx114listIiSaIiEE4sizeEv
FN:1305,1306,_ZNSt7__cxx114listIiSaIiEE9push_backERKi
FN:150,156,_ZNSt8__detail17_List_node_header7_M_initEv
FN:2003,2008,_ZNSt7__cxx114listIiSaIiEE9_M_insertIJRKiEEEvSt14_List_iteratorIiEDpOT_
FN:238,238,_ZNSt10_List_nodeIiE9_M_valptrEv
FN:264,265,_ZNSt14_List_iteratorIiEC2Ev
FN:268,269,_ZNSt14_List_iteratorIiEC2EPNSt8__detail15_List_node_baseE
FN:278,279,_ZNKSt14_List_iteratorIiEdeEv
FN:287,291,_ZNSt14_List_iteratorIiEppEv
FN:324,325,_ZStneRKSt14_List_iteratorIiES2_
FN:455,458,_ZNSt7__cxx1110_List_baseIiSaIiEE10_List_implC2Ev
FN:480,480,_ZNKSt7__cxx1110_List_baseIiSaIiEE11_M_get_sizeEv
FN:484,484,_ZNSt7__cxx1110_List_baseIiSaIiEE11_M_inc_sizeEm
FN:517,518,_ZNSt7__cxx1110_List_baseIiSaIiEE11_M_get_nodeEv
FN:521,522,_ZNSt7__cxx1110_List_baseIiSaIiEE11_M_put_nodeEPSt10_List_nodeIiE
FN:528,529,_ZNSt7__cxx1110_List_baseIiSaIiEE21_M_get_Node_allocatorEv
FN:536,536,_ZNSt7__cxx1110_List_baseIiSaIiEEC2Ev
FN:574,575,_ZNSt7__cxx1110_List_baseIiSaIiEED2Ev
FN:708,717,_ZNSt7__cxx114listIiSaIiEE14_M_create_nodeIJRKiEEEPSt10_List_nodeIiEDpOT_
FN:727,728,_ZNKSt7__cxx114listIiSaIiEE13_M_node_countEv
FN:749,749,_ZNSt7__cxx114listIiSaIiEEC2Ev
FN:903,903,_ZNSt7__cxx114listIiSaIiEED2Ev
FNDA:114,_ZNSt7__cxx114listIiSaIiEE5beginEv
FNDA:337,_ZNSt7__cxx114listIiSaIiEE3endEv
FNDA:36,_ZNSt8__detail17_List_node_headerC2Ev
FNDA:41,_ZNKSt7__cxx114listIiSaIiEE4sizeEv
FNDA:66,_ZNSt7__cxx114listIiSaIiEE9push_backERKi
FNDA:36,_ZNSt8__detail17_List_node_header7_M_initEv
FNDA:66,_ZNSt7__cxx114listIiSaIiEE9_M_insertIJRKiEEEvSt14_List_iteratorIiEDpOT_
FNDA:328,_ZNSt10_List_nodeIiE9_M_valptrEv
FNDA:51,_ZNSt14_List_iteratorIiEC2Ev
FNDA:451,_ZNSt14_List_iteratorIiEC2EPNSt8__detail15_List_node_baseE
FNDA:196,_ZNKSt14_List_iteratorIiEdeEv
FNDA:157,_ZNSt14_List_iteratorIiEppEv
FNDA:271,_ZStneRKSt14_List_iteratorIiES2_
FNDA:36,_ZNSt7__cxx1110_List_baseIiSaIiEE10_List_implC2Ev
FNDA:41,_ZNKSt7__cxx1110_List_baseIiSaIiEE11_M_get_sizeEv
FNDA:66,_ZNSt7__cxx1110_List_baseIiSaIiEE11_M_inc_sizeEm
FNDA:66,_ZNSt7__cxx1110_List_baseIiSaIiEE11_M_get_nodeEv
FNDA:66,_ZNSt7__cxx1110_List_baseIiSaIiEE11_M_put_nodeEPSt10_List_nodeIiE
FNDA:132,_ZNSt7__cxx1110_List_baseIiSaIiEE21_M_get_Node_allocatorEv
FNDA:36,_ZNSt7__cxx1110_List_baseIiSaIiEEC2Ev
FNDA:36,_ZNSt7__cxx1110_List_baseIiSaIiEED2Ev
FNDA:66,_ZNSt7__cxx114listIiSaIiEE14_M_create_nodeIJRKiEEEPSt10_List_nodeIiEDpOT_
FNDA:41,_ZNKSt7__cxx114listIiSaIiEE13_M_node_countEv
FNDA:36,_ZNSt7__cxx114listIiSaIiEEC2Ev
FNDA:36,_ZNSt7__cxx114listIiSaIiEED2Ev
FNF:25
FNH:25
DA:110,36
DA:111,36
DA:150,36
DA:152,36
DA:154,36
DA:156,36
DA:238,328
DA:264,51
DA:265,51
DA:268,451
DA:269,451
DA:278,196
DA:279,196
DA:287,157
DA:289,157
DA:290,157
DA:324,271
DA:325,271
DA:455,36
DA:457,36
DA:458,36
DA:480,41
DA:484,66
DA:517,66
DA:518,132
DA:521,66
DA:522,66
DA:528,132
DA:529,132
DA:536,36
DA:574,36
DA:575,36
DA:708,66
DA:710,66
DA:711,66
DA:712,66
DA:713,66
DA:715,66
DA:716,66
DA:717,66
DA:727,41
DA:728,41
DA:749,36
DA:903,36
DA:1022,114
DA:1023,114
DA:1042,337
DA:1043,337
DA:1149,41
DA:1150,41
DA:1305,66
DA:1306,66
DA:2003,66
DA:2005,66
DA:2006,66
DA:2007,66
DA:2008,66
LF:57
LH:57
end_of_record
TN:
SF:/usr/include/c++/13/ext/aligned_buffer.h
FN:64,65,_ZN9__gnu_cxx16__aligned_membufIiE7_M_addrEv
FN:72,73,_ZN9__gnu_cxx16__aligned_membufIiE6_M_ptrEv
FNDA:328,_ZN9__gnu_cxx16__aligned_membufIiE7_M_addrEv
FNDA:328,_ZN9__gnu_cxx16__aligned_membufIiE6_M_ptrEv
FNF:2
FNH:2
DA:64,328
DA:65,328
DA:72,328
DA:73,328
LF:4
LH:4
end_of_record
TN:
SF:/usr/include/c++/13/new
FN:174,175,_ZnwmPv
FNDA:66,_ZnwmPv
FNF:1
FNH:1
DA:174,66
DA:175,66
LF:2
LH:2
end_of_record
